; Function Attrs: mustprogress nounwind uwtable
define dso_local void @_ZN4llvm6MDNode15deleteTemporaryEPS0_(ptr noundef %0) local_unnamed_addr #0 align 2 {
  %2 = getelementptr inbounds nuw i8, ptr %0, i64 8
  %.0.copyload.i.i.i.i.i.i.i.i.i = load i64, ptr %2, align 8
  %3 = and i64 %.0.copyload.i.i.i.i.i.i.i.i.i, 4
  %.not.i = icmp eq i64 %3, 0
  br i1 %.not.i, label %_ZN4llvm6MDNode18replaceAllUsesWithEPNS_8MetadataE.exit, label %4

4:                                                ; preds = %1
  %5 = and i64 %.0.copyload.i.i.i.i.i.i.i.i.i, -8
  %6 = inttoptr i64 %5 to ptr
  tail call void @_ZN4llvm23ReplaceableMetadataImpl18replaceAllUsesWithEPNS_8MetadataE(ptr noundef nonnull align 8 dereferenceable(120) %6, ptr noundef null)
  br label %_ZN4llvm6MDNode18replaceAllUsesWithEPNS_8MetadataE.exit

_ZN4llvm6MDNode18replaceAllUsesWithEPNS_8MetadataE.exit: ; preds = %1, %4
  tail call void @_ZN4llvm6MDNode16deleteAsSubclassEv(ptr noundef nonnull align 8 dereferenceable(16) %0)
  ret void
}